; Function Attrs: mustprogress uwtable
define dso_local noundef zeroext i1 @_ZNK4Type24signed_overflow_possibleEv(ptr nocapture noundef nonnull readonly align 8 dereferenceable(136) %0) local_unnamed_addr #4 align 2 {
  %2 = load i32, ptr %0, align 8
  %3 = icmp eq i32 %2, 0
  br i1 %3, label %4, label %_ZNK4Type9is_signedEv.exit

4:                                                ; preds = %1
  %5 = getelementptr inbounds i8, ptr %0, i64 16
  %6 = load i32, ptr %5, align 8
  %switch.tableidx = add i32 %6, -6
  %7 = icmp ult i32 %switch.tableidx, 8
  br i1 %7, label %switch.hole_check, label %8

8:                                                ; preds = %switch.hole_check, %4
  %9 = tail call noundef i64 @_ZNK4Type11SizeInBytesEv(ptr noundef nonnull align 8 dereferenceable(136) %0)
  %10 = trunc i64 %9 to i32
  %11 = tail call noundef i32 @_ZN9CGOptions8int_sizeEv()
  %12 = icmp sle i32 %11, %10
  br label %_ZNK4Type9is_signedEv.exit

switch.hole_check:                                ; preds = %4
  %switch.maskindex = trunc i32 %switch.tableidx to i8
  %switch.shifted = lshr i8 -81, %switch.maskindex
  %13 = and i8 %switch.shifted, 1
  %switch.lobit.not = icmp eq i8 %13, 0
  br i1 %switch.lobit.not, label %8, label %_ZNK4Type9is_signedEv.exit

_ZNK4Type9is_signedEv.exit:                       ; preds = %switch.hole_check, %8, %1
  %14 = phi i1 [ false, %1 ], [ %12, %8 ], [ false, %switch.hole_check ]
  ret i1 %14
}